; Function Attrs: mustprogress uwtable
define internal noundef zeroext i1 @_ZL17_DelayedGraphTaskIN32pxrInternal_v0_24__pxrReserved__14WorkDispatcherEEbP5Graph(ptr noundef %0) #4 personality ptr @__gxx_personality_v0 {
  %2 = alloca %struct.timespec, align 8
  %3 = tail call noundef nonnull align 8 dereferenceable(8) ptr @_ZStlsISt11char_traitsIcEERSt13basic_ostreamIcT_ES5_PKc(ptr noundef nonnull align 8 dereferenceable(8) @_ZSt4cout, ptr noundef nonnull @.str.17)
  %4 = tail call noundef nonnull align 8 dereferenceable(8) ptr @_ZNSolsEPFRSoS_E(ptr noundef nonnull align 8 dereferenceable(8) %3, ptr noundef nonnull @_ZSt4endlIcSt11char_traitsIcEERSt13basic_ostreamIT_T0_ES6_)
  call void @llvm.lifetime.start.p0(i64 16, ptr nonnull %2)
  store i64 2, ptr %2, align 8
  %5 = getelementptr inbounds nuw i8, ptr %2, i64 8
  store i64 0, ptr %5, align 8
  br label %6

6:                                                ; preds = %9, %1
  %7 = call i32 @nanosleep(ptr noundef nonnull %2, ptr noundef nonnull %2)
  %8 = icmp eq i32 %7, -1
  br i1 %8, label %9, label %_ZNSt11this_thread9sleep_forIlSt5ratioILl1ELl1EEEEvRKNSt6chrono8durationIT_T0_EE.exit

9:                                                ; preds = %6
  %10 = tail call ptr @__errno_location() #19
  %11 = load i32, ptr %10, align 4
  %12 = icmp eq i32 %11, 4
  br i1 %12, label %6, label %_ZNSt11this_thread9sleep_forIlSt5ratioILl1ELl1EEEEvRKNSt6chrono8durationIT_T0_EE.exit, !llvm.loop !10

_ZNSt11this_thread9sleep_forIlSt5ratioILl1ELl1EEEEvRKNSt6chrono8durationIT_T0_EE.exit: ; preds = %6, %9
  call void @llvm.lifetime.end.p0(i64 16, ptr nonnull %2)
  %13 = call fastcc noundef zeroext i1 @_ZL15_TestDispatcherIN32pxrInternal_v0_24__pxrReserved__14WorkDispatcherEEbP5Graph(ptr noundef %0)
  ret i1 %13
}